target datalayout = "e-m:e-p270:32:32-p271:32:32-p272:64:64-i64:64-i128:128-f80:128-n8:16:32:64-S128"
target triple = "x86_64-pc-linux-gnu"

%struct.H5G_dense_bt2_corder_rec_t = type { [7 x i8], i64 }

@H5G_init_g = external global i8, align 1
@H5_libterm_g = external global i8, align 1

; Function Attrs: nounwind uwtable
define internal i32 @H5G__dense_btree2_corder_encode(ptr noundef %0, ptr noundef %1, ptr noundef %2) #0 {
  %4 = alloca ptr, align 8
  %5 = alloca ptr, align 8
  %6 = alloca ptr, align 8
  %7 = alloca ptr, align 8
  %8 = alloca i64, align 8
  %9 = alloca i64, align 8
  %10 = alloca ptr, align 8
  store ptr %0, ptr %4, align 8, !tbaa !43
  store ptr %1, ptr %5, align 8, !tbaa !3
  store ptr %2, ptr %6, align 8, !tbaa !3
  call void @llvm.lifetime.start.p0(i64 8, ptr %7) #7
  %11 = load ptr, ptr %5, align 8, !tbaa !3
  store ptr %11, ptr %7, align 8, !tbaa !49
  %12 = load i8, ptr @H5G_init_g, align 1, !tbaa !11, !range !13, !noundef !14
  %13 = trunc i8 %12 to i1
  br i1 %13, label %18, label %14

14:                                               ; preds = %3
  %15 = load i8, ptr @H5_libterm_g, align 1, !tbaa !11, !range !13, !noundef !14
  %16 = trunc i8 %15 to i1
  %17 = xor i1 %16, true
  br label %18

18:                                               ; preds = %14, %3
  %19 = phi i1 [ true, %3 ], [ %17, %14 ]
  %20 = xor i1 %19, true
  %21 = xor i1 %20, true
  %22 = zext i1 %21 to i32
  %23 = sext i32 %22 to i64
  %24 = call i64 @llvm.expect.i64(i64 %23, i64 1)
  %25 = icmp ne i64 %24, 0
  br i1 %25, label %26, label %71

26:                                               ; preds = %18
  br label %27

27:                                               ; preds = %26
  call void @llvm.lifetime.start.p0(i64 8, ptr %8) #7
  %28 = load ptr, ptr %7, align 8, !tbaa !49
  %29 = getelementptr inbounds nuw %struct.H5G_dense_bt2_corder_rec_t, ptr %28, i32 0, i32 1
  %30 = load i64, ptr %29, align 8, !tbaa !52
  store i64 %30, ptr %8, align 8, !tbaa !42
  call void @llvm.lifetime.start.p0(i64 8, ptr %9) #7
  call void @llvm.lifetime.start.p0(i64 8, ptr %10) #7
  %31 = load ptr, ptr %4, align 8, !tbaa !43
  store ptr %31, ptr %10, align 8, !tbaa !43
  store i64 0, ptr %9, align 8, !tbaa !42
  br label %32

32:                                               ; preds = %41, %27
  %33 = load i64, ptr %9, align 8, !tbaa !42
  %34 = icmp ult i64 %33, 8
  br i1 %34, label %35, label %46

35:                                               ; preds = %32
  %36 = load i64, ptr %8, align 8, !tbaa !42
  %37 = and i64 %36, 255
  %38 = trunc i64 %37 to i8
  %39 = load ptr, ptr %10, align 8, !tbaa !43
  %40 = getelementptr inbounds nuw i8, ptr %39, i32 1
  store ptr %40, ptr %10, align 8, !tbaa !43
  store i8 %38, ptr %39, align 1, !tbaa !44
  br label %41

41:                                               ; preds = %35
  %42 = load i64, ptr %9, align 8, !tbaa !42
  %43 = add i64 %42, 1
  store i64 %43, ptr %9, align 8, !tbaa !42
  %44 = load i64, ptr %8, align 8, !tbaa !42
  %45 = ashr i64 %44, 8
  store i64 %45, ptr %8, align 8, !tbaa !42
  br label %32, !llvm.loop !55

46:                                               ; preds = %32
  br label %47

47:                                               ; preds = %59, %46
  %48 = load i64, ptr %9, align 8, !tbaa !42
  %49 = icmp ult i64 %48, 8
  br i1 %49, label %50, label %62

50:                                               ; preds = %47
  %51 = load ptr, ptr %7, align 8, !tbaa !49
  %52 = getelementptr inbounds nuw %struct.H5G_dense_bt2_corder_rec_t, ptr %51, i32 0, i32 1
  %53 = load i64, ptr %52, align 8, !tbaa !52
  %54 = icmp slt i64 %53, 0
  %55 = select i1 %54, i32 255, i32 0
  %56 = trunc i32 %55 to i8
  %57 = load ptr, ptr %10, align 8, !tbaa !43
  %58 = getelementptr inbounds nuw i8, ptr %57, i32 1
  store ptr %58, ptr %10, align 8, !tbaa !43
  store i8 %56, ptr %57, align 1, !tbaa !44
  br label %59

59:                                               ; preds = %50
  %60 = load i64, ptr %9, align 8, !tbaa !42
  %61 = add i64 %60, 1
  store i64 %61, ptr %9, align 8, !tbaa !42
  br label %47, !llvm.loop !56

62:                                               ; preds = %47
  %63 = load ptr, ptr %4, align 8, !tbaa !43
  %64 = getelementptr inbounds i8, ptr %63, i64 8
  store ptr %64, ptr %4, align 8, !tbaa !43
  call void @llvm.lifetime.end.p0(i64 8, ptr %10) #7
  call void @llvm.lifetime.end.p0(i64 8, ptr %9) #7
  call void @llvm.lifetime.end.p0(i64 8, ptr %8) #7
  br label %65

65:                                               ; preds = %62
  br label %66

66:                                               ; preds = %65
  %67 = load ptr, ptr %4, align 8, !tbaa !43
  %68 = load ptr, ptr %7, align 8, !tbaa !49
  %69 = getelementptr inbounds nuw %struct.H5G_dense_bt2_corder_rec_t, ptr %68, i32 0, i32 0
  %70 = getelementptr inbounds [7 x i8], ptr %69, i64 0, i64 0
  call void @llvm.memcpy.p0.p0.i64(ptr align 1 %67, ptr align 8 %70, i64 7, i1 false)
  br label %71

71:                                               ; preds = %66, %18
  call void @llvm.lifetime.end.p0(i64 8, ptr %7) #7
  ret i32 0
}