; Function Attrs: nofree norecurse nosync nounwind memory(read, argmem: readwrite, inaccessiblemem: none) uwtable
define internal noundef i32 @H5G__dense_btree2_corder_encode(ptr noundef writeonly captures(none) %0, ptr noundef readonly captures(none) %1, ptr readnone captures(none) %2) #3 {
  %4 = load i8, ptr @H5G_init_g, align 1, !tbaa !3, !range !7, !noundef !8
  %5 = trunc nuw i8 %4 to i1
  %6 = load i8, ptr @H5_libterm_g, align 1, !range !7
  %7 = trunc nuw i8 %6 to i1
  %8 = xor i1 %7, true
  %9 = select i1 %5, i1 true, i1 %8
  br i1 %9, label %10, label %20, !prof !9

10:                                               ; preds = %3
  %11 = getelementptr inbounds nuw i8, ptr %1, i64 8
  %12 = load i64, ptr %11, align 8, !tbaa !41
  br label %13

13:                                               ; preds = %10, %13
  %.019 = phi ptr [ %0, %10 ], [ %15, %13 ]
  %.01418 = phi i64 [ 0, %10 ], [ %16, %13 ]
  %.01617 = phi i64 [ %12, %10 ], [ %17, %13 ]
  %14 = trunc i64 %.01617 to i8
  %15 = getelementptr inbounds nuw i8, ptr %.019, i64 1
  store i8 %14, ptr %.019, align 1, !tbaa !35
  %16 = add nuw nsw i64 %.01418, 1
  %17 = ashr i64 %.01617, 8
  %exitcond.not = icmp eq i64 %16, 8
  br i1 %exitcond.not, label %18, label %13, !llvm.loop !44

18:                                               ; preds = %13
  %19 = getelementptr inbounds nuw i8, ptr %0, i64 8
  tail call void @llvm.memcpy.p0.p0.i64(ptr noundef nonnull align 1 dereferenceable(7) %19, ptr noundef nonnull align 8 dereferenceable(7) %1, i64 7, i1 false)
  br label %20

20:                                               ; preds = %18, %3
  ret i32 0
}